target datalayout = "e-m:e-p270:32:32-p271:32:32-p272:64:64-i64:64-i128:128-f80:128-n8:16:32:64-S128"
target triple = "x86_64-pc-linux-gnu"

%"class.Ipopt::TNLPReducer" = type { %"class.Ipopt::TNLP.base", %"class.Ipopt::SmartPtr", i32, i32, i32, ptr, i32, ptr, i32, i32, i32, ptr, i32, ptr, i32, ptr, i32, ptr }
%"class.Ipopt::TNLP.base" = type { %"class.Ipopt::ReferencedObject.base" }
%"class.Ipopt::ReferencedObject.base" = type <{ ptr, i32 }>
%"class.Ipopt::SmartPtr" = type { ptr }

; Function Attrs: mustprogress nounwind uwtable
define linkonce_odr noundef ptr @_ZNK5Ipopt8SmartPtrINS_4TNLPEEptEv(ptr noundef nonnull align 8 dereferenceable(8) %0) #3 comdat align 2 {
  %2 = alloca ptr, align 8
  store ptr %0, ptr %2, align 8
  %3 = load ptr, ptr %2, align 8
  %4 = getelementptr inbounds %"class.Ipopt::SmartPtr", ptr %3, i32 0, i32 0
  %5 = load ptr, ptr %4, align 8
  ret ptr %5
}

; Function Attrs: mustprogress uwtable
define noundef zeroext i1 @_ZN5Ipopt11TNLPReducer6eval_hEiPKdbdiS2_biPiS3_Pd(ptr noundef nonnull align 8 dereferenceable(136) %0, i32 noundef %1, ptr noundef %2, i1 noundef zeroext %3, double noundef %4, i32 noundef %5, ptr noundef %6, i1 noundef zeroext %7, i32 noundef %8, ptr noundef %9, ptr noundef %10, ptr noundef %11) unnamed_addr #0 align 2 {
  %13 = alloca i1, align 1
  %14 = alloca ptr, align 8
  %15 = alloca i32, align 4
  %16 = alloca ptr, align 8
  %17 = alloca i8, align 1
  %18 = alloca double, align 8
  %19 = alloca i32, align 4
  %20 = alloca ptr, align 8
  %21 = alloca i8, align 1
  %22 = alloca i32, align 4
  %23 = alloca ptr, align 8
  %24 = alloca ptr, align 8
  %25 = alloca ptr, align 8
  %26 = alloca ptr, align 8
  %27 = alloca i32, align 4
  %28 = alloca ptr, align 8
  %29 = alloca i8, align 1
  store ptr %0, ptr %14, align 8
  store i32 %1, ptr %15, align 4
  store ptr %2, ptr %16, align 8
  %30 = zext i1 %3 to i8
  store i8 %30, ptr %17, align 1
  store double %4, ptr %18, align 8
  store i32 %5, ptr %19, align 4
  store ptr %6, ptr %20, align 8
  %31 = zext i1 %7 to i8
  store i8 %31, ptr %21, align 1
  store i32 %8, ptr %22, align 4
  store ptr %9, ptr %23, align 8
  store ptr %10, ptr %24, align 8
  store ptr %11, ptr %25, align 8
  %32 = load ptr, ptr %14, align 8
  %33 = load ptr, ptr %25, align 8
  %34 = icmp ne ptr %33, null
  br i1 %34, label %56, label %35

35:                                               ; preds = %12
  %36 = getelementptr inbounds %"class.Ipopt::TNLPReducer", ptr %32, i32 0, i32 1
  %37 = call noundef ptr @_ZNK5Ipopt8SmartPtrINS_4TNLPEEptEv(ptr noundef nonnull align 8 dereferenceable(8) %36)
  %38 = load i32, ptr %15, align 4
  %39 = load ptr, ptr %16, align 8
  %40 = load i8, ptr %17, align 1
  %41 = trunc i8 %40 to i1
  %42 = load double, ptr %18, align 8
  %43 = getelementptr inbounds %"class.Ipopt::TNLPReducer", ptr %32, i32 0, i32 2
  %44 = load i32, ptr %43, align 8
  %45 = load ptr, ptr %20, align 8
  %46 = load i8, ptr %21, align 1
  %47 = trunc i8 %46 to i1
  %48 = load i32, ptr %22, align 4
  %49 = load ptr, ptr %23, align 8
  %50 = load ptr, ptr %24, align 8
  %51 = load ptr, ptr %25, align 8
  %52 = load ptr, ptr %37, align 8
  %53 = getelementptr inbounds ptr, ptr %52, i64 14
  %54 = load ptr, ptr %53, align 8
  %55 = call noundef zeroext i1 %54(ptr noundef nonnull align 8 dereferenceable(12) %37, i32 noundef %38, ptr noundef %39, i1 noundef zeroext %41, double noundef %42, i32 noundef %44, ptr noundef %45, i1 noundef zeroext %47, i32 noundef %48, ptr noundef %49, ptr noundef %50, ptr noundef %51)
  store i1 %55, ptr %13, align 1
  br label %127

56:                                               ; preds = %12
  %57 = getelementptr inbounds %"class.Ipopt::TNLPReducer", ptr %32, i32 0, i32 2
  %58 = load i32, ptr %57, align 8
  %59 = sext i32 %58 to i64
  %60 = call { i64, i1 } @llvm.umul.with.overflow.i64(i64 %59, i64 8)
  %61 = extractvalue { i64, i1 } %60, 1
  %62 = extractvalue { i64, i1 } %60, 0
  %63 = select i1 %61, i64 -1, i64 %62
  %64 = call noalias noundef nonnull ptr @_Znam(i64 noundef %63) #8
  store ptr %64, ptr %26, align 8
  store i32 0, ptr %27, align 4
  br label %65

65:                                               ; preds = %96, %56
  %66 = load i32, ptr %27, align 4
  %67 = getelementptr inbounds %"class.Ipopt::TNLPReducer", ptr %32, i32 0, i32 2
  %68 = load i32, ptr %67, align 8
  %69 = icmp slt i32 %66, %68
  br i1 %69, label %70, label %99

70:                                               ; preds = %65
  %71 = getelementptr inbounds %"class.Ipopt::TNLPReducer", ptr %32, i32 0, i32 7
  %72 = load ptr, ptr %71, align 8
  %73 = load i32, ptr %27, align 4
  %74 = sext i32 %73 to i64
  %75 = getelementptr inbounds i32, ptr %72, i64 %74
  store ptr %75, ptr %28, align 8
  %76 = load ptr, ptr %28, align 8
  %77 = load i32, ptr %76, align 4
  %78 = icmp sge i32 %77, 0
  br i1 %78, label %79, label %90

79:                                               ; preds = %70
  %80 = load ptr, ptr %20, align 8
  %81 = load ptr, ptr %28, align 8
  %82 = load i32, ptr %81, align 4
  %83 = sext i32 %82 to i64
  %84 = getelementptr inbounds double, ptr %80, i64 %83
  %85 = load double, ptr %84, align 8
  %86 = load ptr, ptr %26, align 8
  %87 = load i32, ptr %27, align 4
  %88 = sext i32 %87 to i64
  %89 = getelementptr inbounds double, ptr %86, i64 %88
  store double %85, ptr %89, align 8
  br label %95

90:                                               ; preds = %70
  %91 = load ptr, ptr %26, align 8
  %92 = load i32, ptr %27, align 4
  %93 = sext i32 %92 to i64
  %94 = getelementptr inbounds double, ptr %91, i64 %93
  store double 0.000000e+00, ptr %94, align 8
  br label %95

95:                                               ; preds = %90, %79
  br label %96

96:                                               ; preds = %95
  %97 = load i32, ptr %27, align 4
  %98 = add nsw i32 %97, 1
  store i32 %98, ptr %27, align 4
  br label %65, !llvm.loop !23

99:                                               ; preds = %65
  %100 = getelementptr inbounds %"class.Ipopt::TNLPReducer", ptr %32, i32 0, i32 1
  %101 = call noundef ptr @_ZNK5Ipopt8SmartPtrINS_4TNLPEEptEv(ptr noundef nonnull align 8 dereferenceable(8) %100)
  %102 = load i32, ptr %15, align 4
  %103 = load ptr, ptr %16, align 8
  %104 = load i8, ptr %17, align 1
  %105 = trunc i8 %104 to i1
  %106 = load double, ptr %18, align 8
  %107 = getelementptr inbounds %"class.Ipopt::TNLPReducer", ptr %32, i32 0, i32 2
  %108 = load i32, ptr %107, align 8
  %109 = load ptr, ptr %26, align 8
  %110 = load i8, ptr %21, align 1
  %111 = trunc i8 %110 to i1
  %112 = load i32, ptr %22, align 4
  %113 = load ptr, ptr %23, align 8
  %114 = load ptr, ptr %24, align 8
  %115 = load ptr, ptr %25, align 8
  %116 = load ptr, ptr %101, align 8
  %117 = getelementptr inbounds ptr, ptr %116, i64 14
  %118 = load ptr, ptr %117, align 8
  %119 = call noundef zeroext i1 %118(ptr noundef nonnull align 8 dereferenceable(12) %101, i32 noundef %102, ptr noundef %103, i1 noundef zeroext %105, double noundef %106, i32 noundef %108, ptr noundef %109, i1 noundef zeroext %111, i32 noundef %112, ptr noundef %113, ptr noundef %114, ptr noundef %115)
  %120 = zext i1 %119 to i8
  store i8 %120, ptr %29, align 1
  %121 = load ptr, ptr %26, align 8
  %122 = icmp eq ptr %121, null
  br i1 %122, label %124, label %123

123:                                              ; preds = %99
  call void @_ZdaPv(ptr noundef %121) #11
  br label %124

124:                                              ; preds = %123, %99
  %125 = load i8, ptr %29, align 1
  %126 = trunc i8 %125 to i1
  store i1 %126, ptr %13, align 1
  br label %127

127:                                              ; preds = %124, %35
  %128 = load i1, ptr %13, align 1
  ret i1 %128
}