; Function Attrs: mustprogress uwtable
define noundef zeroext i1 @_ZN5Ipopt11TNLPReducer6eval_hEiPKdbdiS2_biPiS3_Pd(ptr nocapture noundef nonnull readonly align 8 dereferenceable(136) %0, i32 noundef %1, ptr noundef %2, i1 noundef zeroext %3, double noundef %4, i32 %5, ptr noundef %6, i1 noundef zeroext %7, i32 noundef %8, ptr noundef %9, ptr noundef %10, ptr noundef %11) unnamed_addr #0 align 2 {
  %.not = icmp eq ptr %11, null
  br i1 %.not, label %13, label %22

13:                                               ; preds = %12
  %14 = getelementptr inbounds i8, ptr %0, i64 16
  %15 = load ptr, ptr %14, align 8
  %16 = getelementptr inbounds i8, ptr %0, i64 24
  %17 = load i32, ptr %16, align 8
  %18 = load ptr, ptr %15, align 8
  %19 = getelementptr inbounds i8, ptr %18, i64 112
  %20 = load ptr, ptr %19, align 8
  %21 = tail call noundef zeroext i1 %20(ptr noundef nonnull align 8 dereferenceable(12) %15, i32 noundef %1, ptr noundef %2, i1 noundef zeroext %3, double noundef %4, i32 noundef %17, ptr noundef %6, i1 noundef zeroext %7, i32 noundef %8, ptr noundef %9, ptr noundef %10, ptr noundef null)
  br label %49

22:                                               ; preds = %12
  %23 = getelementptr inbounds i8, ptr %0, i64 24
  %24 = load i32, ptr %23, align 8
  %25 = sext i32 %24 to i64
  %26 = icmp slt i32 %24, 0
  %27 = shl nsw i64 %25, 3
  %28 = select i1 %26, i64 -1, i64 %27
  %29 = tail call noalias noundef nonnull ptr @_Znam(i64 noundef %28) #8
  %30 = icmp sgt i32 %24, 0
  br i1 %30, label %.lr.ph, label %._crit_edge

.lr.ph:                                           ; preds = %22
  %31 = getelementptr inbounds i8, ptr %0, i64 56
  %32 = load ptr, ptr %31, align 8
  %wide.trip.count = zext nneg i32 %24 to i64
  br label %33

33:                                               ; preds = %.lr.ph, %41
  %indvars.iv = phi i64 [ 0, %.lr.ph ], [ %indvars.iv.next, %41 ]
  %34 = getelementptr inbounds i32, ptr %32, i64 %indvars.iv
  %35 = load i32, ptr %34, align 4
  %36 = icmp sgt i32 %35, -1
  br i1 %36, label %37, label %41

37:                                               ; preds = %33
  %38 = zext nneg i32 %35 to i64
  %39 = getelementptr inbounds double, ptr %6, i64 %38
  %40 = load double, ptr %39, align 8
  br label %41

41:                                               ; preds = %33, %37
  %.sink = phi double [ %40, %37 ], [ 0.000000e+00, %33 ]
  %42 = getelementptr inbounds double, ptr %29, i64 %indvars.iv
  store double %.sink, ptr %42, align 8
  %indvars.iv.next = add nuw nsw i64 %indvars.iv, 1
  %exitcond.not = icmp eq i64 %indvars.iv.next, %wide.trip.count
  br i1 %exitcond.not, label %._crit_edge, label %33, !llvm.loop !23

._crit_edge:                                      ; preds = %41, %22
  %43 = getelementptr inbounds i8, ptr %0, i64 16
  %44 = load ptr, ptr %43, align 8
  %45 = load ptr, ptr %44, align 8
  %46 = getelementptr inbounds i8, ptr %45, i64 112
  %47 = load ptr, ptr %46, align 8
  %48 = tail call noundef zeroext i1 %47(ptr noundef nonnull align 8 dereferenceable(12) %44, i32 noundef %1, ptr noundef %2, i1 noundef zeroext %3, double noundef %4, i32 noundef %24, ptr noundef nonnull %29, i1 noundef zeroext %7, i32 noundef %8, ptr noundef %9, ptr noundef %10, ptr noundef nonnull %11)
  tail call void @_ZdaPv(ptr noundef nonnull %29) #9
  br label %49

49:                                               ; preds = %._crit_edge, %13
  %.0 = phi i1 [ %48, %._crit_edge ], [ %21, %13 ]
  ret i1 %.0
}